; Function Attrs: nounwind uwtable
define range(i32 1, -2147483648) i32 @Aig_ObjReverseLevelNew(ptr noundef readonly captures(none) %0, ptr noundef readonly captures(none) %1) local_unnamed_addr #1 {
  %3 = getelementptr inbounds nuw i8, ptr %1, i64 24
  %4 = load i64, ptr %3, align 8
  %5 = and i64 %4, 4294967232
  %.not23 = icmp eq i64 %5, 0
  br i1 %.not23, label %.critedge, label %.lr.ph

.lr.ph:                                           ; preds = %2
  %6 = getelementptr i8, ptr %0, i64 176
  %7 = getelementptr inbounds nuw i8, ptr %1, i64 36
  %8 = getelementptr i8, ptr %0, i64 32
  %9 = getelementptr inbounds nuw i8, ptr %0, i64 280
  br label %10

10:                                               ; preds = %.lr.ph, %Aig_ObjReverseLevel.exit
  %11 = phi i64 [ %4, %.lr.ph ], [ %74, %Aig_ObjReverseLevel.exit ]
  %.022 = phi i32 [ 0, %.lr.ph ], [ %81, %Aig_ObjReverseLevel.exit ]
  %.01421 = phi i32 [ 0, %.lr.ph ], [ %82, %Aig_ObjReverseLevel.exit ]
  %.01520 = phi i32 [ -1, %.lr.ph ], [ %24, %Aig_ObjReverseLevel.exit ]
  %.not = icmp eq i32 %.01421, 0
  br i1 %.not, label %18, label %12

12:                                               ; preds = %10
  %13 = ashr i32 %.01520, 1
  %14 = mul nsw i32 %13, 5
  %15 = and i32 %.01520, 1
  %16 = add nuw nsw i32 %15, 3
  %17 = add i32 %16, %14
  br label %21

18:                                               ; preds = %10
  %19 = load i32, ptr %7, align 4, !tbaa !21
  %20 = mul nsw i32 %19, 5
  br label %21

21:                                               ; preds = %18, %12
  %.sink24 = phi i32 [ %20, %18 ], [ %17, %12 ]
  %.val16.sink = load ptr, ptr %6, align 8, !tbaa !28
  %22 = sext i32 %.sink24 to i64
  %23 = getelementptr inbounds i32, ptr %.val16.sink, i64 %22
  %24 = load i32, ptr %23, align 4, !tbaa !26
  %.val17 = load ptr, ptr %8, align 8, !tbaa !29
  %.not.i = icmp eq ptr %.val17, null
  br i1 %.not.i, label %Aig_ManObj.exit, label %25

25:                                               ; preds = %21
  %26 = ashr i32 %24, 1
  %27 = getelementptr i8, ptr %.val17, i64 8
  %.val.i = load ptr, ptr %27, align 8, !tbaa !30
  %28 = sext i32 %26 to i64
  %29 = getelementptr inbounds ptr, ptr %.val.i, i64 %28
  %30 = load ptr, ptr %29, align 8, !tbaa !32
  br label %Aig_ManObj.exit

Aig_ManObj.exit:                                  ; preds = %21, %25
  %31 = phi ptr [ %30, %25 ], [ null, %21 ]
  %32 = load ptr, ptr %9, align 8, !tbaa !3
  %33 = getelementptr inbounds nuw i8, ptr %31, i64 36
  %34 = load i32, ptr %33, align 4, !tbaa !21
  %35 = add nsw i32 %34, 1
  %36 = getelementptr inbounds nuw i8, ptr %32, i64 4
  %37 = load i32, ptr %36, align 4, !tbaa !22
  %.not.i.not.i = icmp slt i32 %34, %37
  br i1 %.not.i.not.i, label %Aig_ObjReverseLevel.exit, label %38

38:                                               ; preds = %Aig_ManObj.exit
  %39 = load i32, ptr %32, align 8, !tbaa !24
  %40 = shl nsw i32 %39, 1
  %.not.i18 = icmp slt i32 %34, %40
  %.not.i.i.not.i = icmp sgt i32 %39, %34
  br i1 %.not.i18, label %53, label %41

41:                                               ; preds = %38
  br i1 %.not.i.i.not.i, label %Vec_IntGrow.exit.i.i, label %42

42:                                               ; preds = %41
  %43 = getelementptr inbounds nuw i8, ptr %32, i64 8
  %44 = load ptr, ptr %43, align 8, !tbaa !25
  %.not9.i.i.i = icmp eq ptr %44, null
  %45 = sext i32 %35 to i64
  %46 = shl nsw i64 %45, 2
  br i1 %.not9.i.i.i, label %49, label %47

47:                                               ; preds = %42
  %48 = tail call ptr @realloc(ptr noundef nonnull %44, i64 noundef %46) #12
  br label %51

49:                                               ; preds = %42
  %50 = tail call noalias ptr @malloc(i64 noundef %46) #13
  br label %51

51:                                               ; preds = %49, %47
  %52 = phi ptr [ %48, %47 ], [ %50, %49 ]
  store ptr %52, ptr %43, align 8, !tbaa !25
  br label %Vec_IntGrow.exit.sink.split.i.i

53:                                               ; preds = %38
  br i1 %.not.i.i.not.i, label %Vec_IntGrow.exit.i.i, label %54

54:                                               ; preds = %53
  %55 = getelementptr inbounds nuw i8, ptr %32, i64 8
  %56 = load ptr, ptr %55, align 8, !tbaa !25
  %.not9.i21.i.i = icmp eq ptr %56, null
  %57 = sext i32 %40 to i64
  %58 = shl nsw i64 %57, 2
  br i1 %.not9.i21.i.i, label %61, label %59

59:                                               ; preds = %54
  %60 = tail call ptr @realloc(ptr noundef nonnull %56, i64 noundef %58) #12
  br label %63

61:                                               ; preds = %54
  %62 = tail call noalias ptr @malloc(i64 noundef %58) #13
  br label %63

63:                                               ; preds = %61, %59
  %64 = phi ptr [ %60, %59 ], [ %62, %61 ]
  store ptr %64, ptr %55, align 8, !tbaa !25
  br label %Vec_IntGrow.exit.sink.split.i.i

Vec_IntGrow.exit.sink.split.i.i:                  ; preds = %63, %51
  %.sink.i.i = phi i32 [ %40, %63 ], [ %35, %51 ]
  store i32 %.sink.i.i, ptr %32, align 8, !tbaa !24
  %.pre.i = load i32, ptr %36, align 4, !tbaa !22
  br label %Vec_IntGrow.exit.i.i

Vec_IntGrow.exit.i.i:                             ; preds = %Vec_IntGrow.exit.sink.split.i.i, %53, %41
  %65 = phi i32 [ %.pre.i, %Vec_IntGrow.exit.sink.split.i.i ], [ %37, %53 ], [ %37, %41 ]
  %.not4.i = icmp sgt i32 %65, %34
  br i1 %.not4.i, label %._crit_edge.i.i, label %.lr.ph.i.i

.lr.ph.i.i:                                       ; preds = %Vec_IntGrow.exit.i.i
  %66 = getelementptr inbounds nuw i8, ptr %32, i64 8
  %67 = load ptr, ptr %66, align 8, !tbaa !25
  %68 = sext i32 %65 to i64
  %69 = shl nsw i64 %68, 2
  %scevgep.i.i = getelementptr i8, ptr %67, i64 %69
  %70 = sub i32 %34, %65
  %71 = zext i32 %70 to i64
  %72 = shl nuw nsw i64 %71, 2
  %73 = add nuw nsw i64 %72, 4
  tail call void @llvm.memset.p0.i64(ptr noundef nonnull align 4 dereferenceable(1) %scevgep.i.i, i8 0, i64 %73, i1 false), !tbaa !26
  br label %._crit_edge.i.i

._crit_edge.i.i:                                  ; preds = %.lr.ph.i.i, %Vec_IntGrow.exit.i.i
  store i32 %35, ptr %36, align 4, !tbaa !22
  %.pre5.i = load ptr, ptr %9, align 8, !tbaa !3
  %.pre6.i = load i32, ptr %33, align 4, !tbaa !21
  %.pre = load i64, ptr %3, align 8
  br label %Aig_ObjReverseLevel.exit

Aig_ObjReverseLevel.exit:                         ; preds = %Aig_ManObj.exit, %._crit_edge.i.i
  %74 = phi i64 [ %11, %Aig_ManObj.exit ], [ %.pre, %._crit_edge.i.i ]
  %75 = phi i32 [ %34, %Aig_ManObj.exit ], [ %.pre6.i, %._crit_edge.i.i ]
  %76 = phi ptr [ %32, %Aig_ManObj.exit ], [ %.pre5.i, %._crit_edge.i.i ]
  %77 = getelementptr i8, ptr %76, i64 8
  %.val.i19 = load ptr, ptr %77, align 8, !tbaa !25
  %78 = sext i32 %75 to i64
  %79 = getelementptr inbounds i32, ptr %.val.i19, i64 %78
  %80 = load i32, ptr %79, align 4, !tbaa !26
  %81 = tail call noundef i32 @llvm.smax.i32(i32 %.022, i32 %80)
  %82 = add nuw nsw i32 %.01421, 1
  %83 = trunc i64 %74 to i32
  %84 = lshr i32 %83, 6
  %85 = icmp samesign ult i32 %82, %84
  br i1 %85, label %10, label %.critedge.loopexit, !llvm.loop !33

.critedge.loopexit:                               ; preds = %Aig_ObjReverseLevel.exit
  %86 = add nuw nsw i32 %81, 1
  br label %.critedge

.critedge:                                        ; preds = %.critedge.loopexit, %2
  %.0.lcssa = phi i32 [ 1, %2 ], [ %86, %.critedge.loopexit ]
  ret i32 %.0.lcssa
}